target datalayout = "e-m:e-p270:32:32-p271:32:32-p272:64:64-i64:64-i128:128-f80:128-n8:16:32:64-S128"
target triple = "x86_64-pc-linux-gnu"

%"class.std::shared_ptr" = type { %"class.std::__shared_ptr" }
%"class.std::__shared_ptr" = type { ptr, %"class.std::__shared_count" }
%"class.std::__shared_count" = type { ptr }
%"class.pxrInternal_v0_24__pxrReserved__::SdfPath" = type { %"struct.pxrInternal_v0_24__pxrReserved__::Sdf_PathNodeHandleImpl", %"struct.pxrInternal_v0_24__pxrReserved__::Sdf_PathNodeHandleImpl.55" }
%"struct.pxrInternal_v0_24__pxrReserved__::Sdf_PathNodeHandleImpl" = type { %"struct.pxrInternal_v0_24__pxrReserved__::Sdf_Pool<pxrInternal_v0_24__pxrReserved__::Sdf_PathPrimTag, 24, 8>::Handle" }
%"struct.pxrInternal_v0_24__pxrReserved__::Sdf_Pool<pxrInternal_v0_24__pxrReserved__::Sdf_PathPrimTag, 24, 8>::Handle" = type { i32 }
%"struct.pxrInternal_v0_24__pxrReserved__::Sdf_PathNodeHandleImpl.55" = type { %"struct.pxrInternal_v0_24__pxrReserved__::Sdf_Pool<pxrInternal_v0_24__pxrReserved__::Sdf_PathPropTag, 24, 8>::Handle" }
%"struct.pxrInternal_v0_24__pxrReserved__::Sdf_Pool<pxrInternal_v0_24__pxrReserved__::Sdf_PathPropTag, 24, 8>::Handle" = type { i32 }
%"class.pxrInternal_v0_24__pxrReserved__::UsdPrimCompositionQuery" = type { %"class.pxrInternal_v0_24__pxrReserved__::UsdPrim", %"struct.pxrInternal_v0_24__pxrReserved__::UsdPrimCompositionQuery::Filter", %"class.std::shared_ptr", %"class.std::vector.123" }
%"class.pxrInternal_v0_24__pxrReserved__::UsdPrim" = type { %"class.pxrInternal_v0_24__pxrReserved__::UsdObject" }
%"class.pxrInternal_v0_24__pxrReserved__::UsdObject" = type { i32, %"class.pxrInternal_v0_24__pxrReserved__::Usd_PrimDataHandle", %"class.pxrInternal_v0_24__pxrReserved__::SdfPath", %"class.pxrInternal_v0_24__pxrReserved__::TfToken" }
%"class.pxrInternal_v0_24__pxrReserved__::Usd_PrimDataHandle" = type { %"class.pxrInternal_v0_24__pxrReserved__::TfDelegatedCountPtr.121" }
%"class.pxrInternal_v0_24__pxrReserved__::TfDelegatedCountPtr.121" = type { ptr }
%"class.pxrInternal_v0_24__pxrReserved__::TfToken" = type { %"class.pxrInternal_v0_24__pxrReserved__::TfPointerAndBits.122" }
%"class.pxrInternal_v0_24__pxrReserved__::TfPointerAndBits.122" = type { ptr }
%"struct.pxrInternal_v0_24__pxrReserved__::UsdPrimCompositionQuery::Filter" = type { i32, i32, i32, i32 }
%"class.std::vector.123" = type { %"struct.std::_Vector_base.124" }
%"struct.std::_Vector_base.124" = type { %"struct.std::_Vector_base<pxrInternal_v0_24__pxrReserved__::UsdPrimCompositionQueryArc, std::allocator<pxrInternal_v0_24__pxrReserved__::UsdPrimCompositionQueryArc>>::_Vector_impl" }
%"struct.std::_Vector_base<pxrInternal_v0_24__pxrReserved__::UsdPrimCompositionQueryArc, std::allocator<pxrInternal_v0_24__pxrReserved__::UsdPrimCompositionQueryArc>>::_Vector_impl" = type { %"struct.std::_Vector_base<pxrInternal_v0_24__pxrReserved__::UsdPrimCompositionQueryArc, std::allocator<pxrInternal_v0_24__pxrReserved__::UsdPrimCompositionQueryArc>>::_Vector_impl_data" }
%"struct.std::_Vector_base<pxrInternal_v0_24__pxrReserved__::UsdPrimCompositionQueryArc, std::allocator<pxrInternal_v0_24__pxrReserved__::UsdPrimCompositionQueryArc>>::_Vector_impl_data" = type { ptr, ptr, ptr }

@_ZN32pxrInternal_v0_24__pxrReserved__23UsdPrimCompositionQueryC1ERKNS_7UsdPrimERKNS0_6FilterE = unnamed_addr alias void (ptr, ptr, ptr), ptr @_ZN32pxrInternal_v0_24__pxrReserved__23UsdPrimCompositionQueryC2ERKNS_7UsdPrimERKNS0_6FilterE

; Function Attrs: mustprogress nounwind uwtable
define linkonce_odr void @_ZN32pxrInternal_v0_24__pxrReserved__23UsdPrimCompositionQuery6FilterC2Ev(ptr noundef nonnull align 4 dereferenceable(16) %0) unnamed_addr #2 comdat align 2 {
  %2 = alloca ptr, align 8
  store ptr %0, ptr %2, align 8
  %3 = load ptr, ptr %2, align 8
  %4 = getelementptr inbounds nuw %"struct.pxrInternal_v0_24__pxrReserved__::UsdPrimCompositionQuery::Filter", ptr %3, i32 0, i32 0
  store i32 0, ptr %4, align 4
  %5 = getelementptr inbounds nuw %"struct.pxrInternal_v0_24__pxrReserved__::UsdPrimCompositionQuery::Filter", ptr %3, i32 0, i32 1
  store i32 0, ptr %5, align 4
  %6 = getelementptr inbounds nuw %"struct.pxrInternal_v0_24__pxrReserved__::UsdPrimCompositionQuery::Filter", ptr %3, i32 0, i32 2
  store i32 0, ptr %6, align 4
  %7 = getelementptr inbounds nuw %"struct.pxrInternal_v0_24__pxrReserved__::UsdPrimCompositionQuery::Filter", ptr %3, i32 0, i32 3
  store i32 0, ptr %7, align 4
  ret void
}

; Function Attrs: mustprogress uwtable
define void @_ZN32pxrInternal_v0_24__pxrReserved__23UsdPrimCompositionQuery17GetDirectInheritsERKNS_7UsdPrimE(ptr dead_on_unwind noalias writable sret(%"class.pxrInternal_v0_24__pxrReserved__::UsdPrimCompositionQuery") align 8 %0, ptr noundef nonnull align 8 dereferenceable(32) %1) #0 align 2 {
  %3 = alloca ptr, align 8
  %4 = alloca ptr, align 8
  %5 = alloca %"struct.pxrInternal_v0_24__pxrReserved__::UsdPrimCompositionQuery::Filter", align 4
  store ptr %0, ptr %3, align 8
  store ptr %1, ptr %4, align 8
  call void @_ZN32pxrInternal_v0_24__pxrReserved__23UsdPrimCompositionQuery6FilterC2Ev(ptr noundef nonnull align 4 dereferenceable(16) %5)
  %6 = getelementptr inbounds nuw %"struct.pxrInternal_v0_24__pxrReserved__::UsdPrimCompositionQuery::Filter", ptr %5, i32 0, i32 1
  store i32 1, ptr %6, align 4
  %7 = getelementptr inbounds nuw %"struct.pxrInternal_v0_24__pxrReserved__::UsdPrimCompositionQuery::Filter", ptr %5, i32 0, i32 0
  store i32 3, ptr %7, align 4
  %8 = load ptr, ptr %4, align 8
  call void @_ZN32pxrInternal_v0_24__pxrReserved__23UsdPrimCompositionQueryC1ERKNS_7UsdPrimERKNS0_6FilterE(ptr noundef nonnull align 8 dereferenceable(88) %0, ptr noundef nonnull align 8 dereferenceable(32) %8, ptr noundef nonnull align 4 dereferenceable(16) %5)
  ret void
}